; Function Attrs: nounwind uwtable
define range(i32 -1, 1) i32 @h5trav_getinfo(i64 noundef %0, ptr noundef %1) local_unnamed_addr #1 {
  %3 = alloca %struct.trav_visitor_t, align 8
  call void @llvm.lifetime.start.p0(i64 24, ptr nonnull %3) #18
  store ptr @trav_info_visit_obj, ptr %3, align 8, !tbaa !34
  %4 = getelementptr inbounds nuw i8, ptr %3, i64 8
  store ptr @trav_info_visit_lnk, ptr %4, align 8, !tbaa !36
  %5 = getelementptr inbounds nuw i8, ptr %3, i64 16
  store ptr %1, ptr %5, align 8, !tbaa !37
  %6 = call fastcc i32 @traverse(i64 noundef %0, ptr noundef nonnull @.str.1, i1 noundef zeroext true, i1 noundef zeroext true, ptr noundef %3, i32 noundef 1)
  %7 = icmp slt i32 %6, 0
  br i1 %7, label %8, label %24

8:                                                ; preds = %2
  %9 = load i32, ptr @enable_error_stack, align 4, !tbaa !3
  %10 = icmp sgt i32 %9, 0
  br i1 %10, label %11, label %24

11:                                               ; preds = %8
  %12 = load i64, ptr @H5tools_ERR_STACK_g, align 8, !tbaa !38
  %13 = icmp sgt i64 %12, -1
  %14 = load i64, ptr @H5tools_ERR_CLS_g, align 8
  %15 = icmp sgt i64 %14, -1
  %or.cond = select i1 %13, i1 %15, i1 false
  br i1 %or.cond, label %16, label %20

16:                                               ; preds = %11
  %17 = load i64, ptr @H5E_tools_g, align 8, !tbaa !38
  %18 = load i64, ptr @H5E_tools_min_id_g, align 8, !tbaa !38
  %19 = call i32 (i64, ptr, ptr, i32, i64, i64, i64, ptr, ...) @H5Epush2(i64 noundef %12, ptr noundef nonnull @.str.2, ptr noundef nonnull @__func__.h5trav_getinfo, i32 noundef 432, i64 noundef %14, i64 noundef %17, i64 noundef %18, ptr noundef nonnull @.str.3) #18
  br label %24

20:                                               ; preds = %11
  %21 = load ptr, ptr @stderr, align 8, !tbaa !39
  %22 = call i64 @fwrite(ptr nonnull @.str.3, i64 15, i64 1, ptr %21) #19
  %23 = load ptr, ptr @stderr, align 8, !tbaa !39
  %fputc = call i32 @fputc(i32 10, ptr %23)
  br label %24

24:                                               ; preds = %16, %20, %8, %2
  %.0 = phi i32 [ 0, %2 ], [ -1, %8 ], [ -1, %20 ], [ -1, %16 ]
  call void @llvm.lifetime.end.p0(i64 24, ptr nonnull %3) #18
  ret i32 %.0
}